; ModuleID = 'source-C-CXX/41/1442.cpp'
source_filename = "source-C-CXX/41/1442.cpp"
target datalayout = "e-m:e-p270:32:32-p271:32:32-p272:64:64-i64:64-f80:128-n8:16:32:64-S128"
target triple = "x86_64-pc-linux-gnu"

%"class.std::ios_base::Init" = type { i8 }
%"class.std::basic_istream" = type { i32 (...)**, i64, %"class.std::basic_ios" }
%"class.std::basic_ios" = type { %"class.std::ios_base", %"class.std::basic_ostream"*, i8, i8, %"class.std::basic_streambuf"*, %"class.std::ctype"*, %"class.std::num_put"*, %"class.std::num_get"* }
%"class.std::ios_base" = type { i32 (...)**, i64, i64, i32, i32, i32, %"struct.std::ios_base::_Callback_list"*, %"struct.std::ios_base::_Words", [8 x %"struct.std::ios_base::_Words"], i32, %"struct.std::ios_base::_Words"*, %"class.std::locale" }
%"struct.std::ios_base::_Callback_list" = type { %"struct.std::ios_base::_Callback_list"*, void (i32, %"class.std::ios_base"*, i32)*, i32, i32 }
%"struct.std::ios_base::_Words" = type { i8*, i64 }
%"class.std::locale" = type { %"class.std::locale::_Impl"* }
%"class.std::locale::_Impl" = type { i32, %"class.std::locale::facet"**, i64, %"class.std::locale::facet"**, i8** }
%"class.std::locale::facet" = type <{ i32 (...)**, i32, [4 x i8] }>
%"class.std::basic_ostream" = type { i32 (...)**, %"class.std::basic_ios" }
%"class.std::basic_streambuf" = type { i32 (...)**, i8*, i8*, i8*, i8*, i8*, i8*, %"class.std::locale" }
%"class.std::ctype" = type <{ %"class.std::locale::facet.base", [4 x i8], %struct.__locale_struct*, i8, [7 x i8], i32*, i32*, i16*, i8, [256 x i8], [256 x i8], i8, [6 x i8] }>
%"class.std::locale::facet.base" = type <{ i32 (...)**, i32 }>
%struct.__locale_struct = type { [13 x %struct.__locale_data*], i16*, i32*, i32*, [13 x i8*] }
%struct.__locale_data = type opaque
%"class.std::num_put" = type { %"class.std::locale::facet.base", [4 x i8] }
%"class.std::num_get" = type { %"class.std::locale::facet.base", [4 x i8] }

@_ZStL8__ioinit = internal global %"class.std::ios_base::Init" zeroinitializer, align 1
@__dso_handle = external hidden global i8
@_ZSt3cin = external global %"class.std::basic_istream", align 8
@_ZSt4cout = external global %"class.std::basic_ostream", align 8
@.str = private unnamed_addr constant [2 x i8] c" \00", align 1
@llvm.global_ctors = appending global [1 x { i32, void ()*, i8* }] [{ i32, void ()*, i8* } { i32 65535, void ()* @_GLOBAL__sub_I_1442.cpp, i8* null }]

declare void @_ZNSt8ios_base4InitC1Ev(%"class.std::ios_base::Init"* nonnull align 1 dereferenceable(1)) unnamed_addr #0

; Function Attrs: nounwind
declare void @_ZNSt8ios_base4InitD1Ev(%"class.std::ios_base::Init"* nonnull align 1 dereferenceable(1)) unnamed_addr #1

; Function Attrs: nofree nounwind
declare i32 @__cxa_atexit(void (i8*)*, i8*, i8*) local_unnamed_addr #2

; Function Attrs: mustprogress norecurse sspstrong uwtable
define dso_local i32 @main() local_unnamed_addr #3 {
  %1 = alloca i32, align 4
  %2 = alloca i32, align 4
  %3 = alloca [100000 x i32], align 16
  %4 = bitcast i32* %1 to i8*
  call void @llvm.lifetime.start.p0i8(i64 4, i8* nonnull %4) #8
  %5 = bitcast i32* %2 to i8*
  call void @llvm.lifetime.start.p0i8(i64 4, i8* nonnull %5) #8
  %6 = call nonnull align 8 dereferenceable(16) %"class.std::basic_istream"* @_ZNSirsERi(%"class.std::basic_istream"* nonnull align 8 dereferenceable(16) @_ZSt3cin, i32* nonnull align 4 dereferenceable(4) %1)
  %7 = bitcast [100000 x i32]* %3 to i8*
  call void @llvm.lifetime.start.p0i8(i64 400000, i8* nonnull %7) #8
  call void @llvm.memset.p0i8.i64(i8* noundef nonnull align 16 dereferenceable(400000) %7, i8 0, i64 400000, i1 false)
  %8 = load i32, i32* %1, align 4, !tbaa !5
  %9 = icmp sgt i32 %8, 0
  br i1 %9, label %10, label %18

10:                                               ; preds = %0, %10
  %11 = phi i64 [ %14, %10 ], [ 0, %0 ]
  %12 = getelementptr inbounds [100000 x i32], [100000 x i32]* %3, i64 0, i64 %11
  %13 = call nonnull align 8 dereferenceable(16) %"class.std::basic_istream"* @_ZNSirsERi(%"class.std::basic_istream"* nonnull align 8 dereferenceable(16) @_ZSt3cin, i32* nonnull align 4 dereferenceable(4) %12)
  %14 = add nuw nsw i64 %11, 1
  %15 = load i32, i32* %1, align 4, !tbaa !5
  %16 = sext i32 %15 to i64
  %17 = icmp slt i64 %14, %16
  br i1 %17, label %10, label %18, !llvm.loop !9

18:                                               ; preds = %10, %0
  %19 = call nonnull align 8 dereferenceable(16) %"class.std::basic_istream"* @_ZNSirsERi(%"class.std::basic_istream"* nonnull align 8 dereferenceable(16) @_ZSt3cin, i32* nonnull align 4 dereferenceable(4) %2)
  %20 = load i32, i32* %1, align 4, !tbaa !5
  %21 = load i32, i32* %2, align 4
  %22 = icmp sgt i32 %20, 0
  br i1 %22, label %23, label %69

23:                                               ; preds = %18
  %24 = zext i32 %20 to i64
  %25 = and i64 %24, 1
  %26 = icmp eq i32 %20, 1
  br i1 %26, label %50, label %27

27:                                               ; preds = %23
  %28 = and i64 %24, 4294967294
  br label %29

29:                                               ; preds = %121, %27
  %30 = phi i64 [ 0, %27 ], [ %122, %121 ]
  %31 = phi i32 [ 0, %27 ], [ %49, %121 ]
  %32 = phi i64 [ %28, %27 ], [ %123, %121 ]
  %33 = getelementptr inbounds [100000 x i32], [100000 x i32]* %3, i64 0, i64 %30
  %34 = load i32, i32* %33, align 8, !tbaa !5
  %35 = icmp eq i32 %34, %21
  %36 = zext i1 %35 to i32
  %37 = add nuw nsw i32 %31, %36
  br i1 %35, label %43, label %38

38:                                               ; preds = %29
  %39 = trunc i64 %30 to i32
  %40 = sub nsw i32 %39, %37
  %41 = sext i32 %40 to i64
  %42 = getelementptr inbounds [100000 x i32], [100000 x i32]* %3, i64 0, i64 %41
  store i32 %34, i32* %42, align 4, !tbaa !5
  br label %43

43:                                               ; preds = %29, %38
  %44 = or i64 %30, 1
  %45 = getelementptr inbounds [100000 x i32], [100000 x i32]* %3, i64 0, i64 %44
  %46 = load i32, i32* %45, align 4, !tbaa !5
  %47 = icmp eq i32 %46, %21
  %48 = zext i1 %47 to i32
  %49 = add nuw nsw i32 %37, %48
  br i1 %47, label %121, label %116

50:                                               ; preds = %121, %23
  %51 = phi i32 [ undef, %23 ], [ %49, %121 ]
  %52 = phi i64 [ 0, %23 ], [ %122, %121 ]
  %53 = phi i32 [ 0, %23 ], [ %49, %121 ]
  %54 = icmp eq i64 %25, 0
  br i1 %54, label %66, label %55

55:                                               ; preds = %50
  %56 = getelementptr inbounds [100000 x i32], [100000 x i32]* %3, i64 0, i64 %52
  %57 = load i32, i32* %56, align 4, !tbaa !5
  %58 = icmp eq i32 %57, %21
  %59 = zext i1 %58 to i32
  %60 = add nuw nsw i32 %53, %59
  br i1 %58, label %66, label %61

61:                                               ; preds = %55
  %62 = trunc i64 %52 to i32
  %63 = sub nsw i32 %62, %60
  %64 = sext i32 %63 to i64
  %65 = getelementptr inbounds [100000 x i32], [100000 x i32]* %3, i64 0, i64 %64
  store i32 %57, i32* %65, align 4, !tbaa !5
  br label %66

66:                                               ; preds = %61, %55, %50
  %67 = phi i32 [ %51, %50 ], [ %60, %55 ], [ %60, %61 ]
  %68 = xor i32 %67, -1
  br label %69

69:                                               ; preds = %66, %18
  %70 = phi i32 [ -1, %18 ], [ %68, %66 ]
  %71 = getelementptr inbounds [100000 x i32], [100000 x i32]* %3, i64 0, i64 0
  %72 = load i32, i32* %71, align 16, !tbaa !5
  %73 = call nonnull align 8 dereferenceable(8) %"class.std::basic_ostream"* @_ZNSolsEi(%"class.std::basic_ostream"* nonnull align 8 dereferenceable(8) @_ZSt4cout, i32 %72)
  %74 = load i32, i32* %1, align 4, !tbaa !5
  %75 = add i32 %74, %70
  %76 = icmp slt i32 %75, 1
  br i1 %76, label %88, label %77

77:                                               ; preds = %69, %77
  %78 = phi i64 [ %83, %77 ], [ 1, %69 ]
  %79 = call nonnull align 8 dereferenceable(8) %"class.std::basic_ostream"* @_ZSt16__ostream_insertIcSt11char_traitsIcEERSt13basic_ostreamIT_T0_ES6_PKS3_l(%"class.std::basic_ostream"* nonnull align 8 dereferenceable(8) @_ZSt4cout, i8* nonnull getelementptr inbounds ([2 x i8], [2 x i8]* @.str, i64 0, i64 0), i64 1)
  %80 = getelementptr inbounds [100000 x i32], [100000 x i32]* %3, i64 0, i64 %78
  %81 = load i32, i32* %80, align 4, !tbaa !5
  %82 = call nonnull align 8 dereferenceable(8) %"class.std::basic_ostream"* @_ZNSolsEi(%"class.std::basic_ostream"* nonnull align 8 dereferenceable(8) @_ZSt4cout, i32 %81)
  %83 = add nuw nsw i64 %78, 1
  %84 = load i32, i32* %1, align 4, !tbaa !5
  %85 = add i32 %84, %70
  %86 = sext i32 %85 to i64
  %87 = icmp slt i64 %78, %86
  br i1 %87, label %77, label %88, !llvm.loop !11

88:                                               ; preds = %77, %69
  %89 = load i8*, i8** bitcast (%"class.std::basic_ostream"* @_ZSt4cout to i8**), align 8, !tbaa !12
  %90 = getelementptr i8, i8* %89, i64 -24
  %91 = bitcast i8* %90 to i64*
  %92 = load i64, i64* %91, align 8
  %93 = add nsw i64 %92, 240
  %94 = getelementptr inbounds i8, i8* bitcast (%"class.std::basic_ostream"* @_ZSt4cout to i8*), i64 %93
  %95 = bitcast i8* %94 to %"class.std::ctype"**
  %96 = load %"class.std::ctype"*, %"class.std::ctype"** %95, align 8, !tbaa !14
  %97 = icmp eq %"class.std::ctype"* %96, null
  br i1 %97, label %98, label %99

98:                                               ; preds = %88
  call void @_ZSt16__throw_bad_castv() #9
  unreachable

99:                                               ; preds = %88
  %100 = getelementptr inbounds %"class.std::ctype", %"class.std::ctype"* %96, i64 0, i32 8
  %101 = load i8, i8* %100, align 8, !tbaa !18
  %102 = icmp eq i8 %101, 0
  br i1 %102, label %106, label %103

103:                                              ; preds = %99
  %104 = getelementptr inbounds %"class.std::ctype", %"class.std::ctype"* %96, i64 0, i32 9, i64 10
  %105 = load i8, i8* %104, align 1, !tbaa !20
  br label %112

106:                                              ; preds = %99
  call void @_ZNKSt5ctypeIcE13_M_widen_initEv(%"class.std::ctype"* nonnull align 8 dereferenceable(570) %96)
  %107 = bitcast %"class.std::ctype"* %96 to i8 (%"class.std::ctype"*, i8)***
  %108 = load i8 (%"class.std::ctype"*, i8)**, i8 (%"class.std::ctype"*, i8)*** %107, align 8, !tbaa !12
  %109 = getelementptr inbounds i8 (%"class.std::ctype"*, i8)*, i8 (%"class.std::ctype"*, i8)** %108, i64 6
  %110 = load i8 (%"class.std::ctype"*, i8)*, i8 (%"class.std::ctype"*, i8)** %109, align 8
  %111 = call signext i8 %110(%"class.std::ctype"* nonnull align 8 dereferenceable(570) %96, i8 signext 10)
  br label %112

112:                                              ; preds = %103, %106
  %113 = phi i8 [ %105, %103 ], [ %111, %106 ]
  %114 = call nonnull align 8 dereferenceable(8) %"class.std::basic_ostream"* @_ZNSo3putEc(%"class.std::basic_ostream"* nonnull align 8 dereferenceable(8) @_ZSt4cout, i8 signext %113)
  %115 = call nonnull align 8 dereferenceable(8) %"class.std::basic_ostream"* @_ZNSo5flushEv(%"class.std::basic_ostream"* nonnull align 8 dereferenceable(8) %114)
  call void @llvm.lifetime.end.p0i8(i64 400000, i8* nonnull %7) #8
  call void @llvm.lifetime.end.p0i8(i64 4, i8* nonnull %5) #8
  call void @llvm.lifetime.end.p0i8(i64 4, i8* nonnull %4) #8
  ret i32 0

116:                                              ; preds = %43
  %117 = trunc i64 %44 to i32
  %118 = sub nsw i32 %117, %49
  %119 = sext i32 %118 to i64
  %120 = getelementptr inbounds [100000 x i32], [100000 x i32]* %3, i64 0, i64 %119
  store i32 %46, i32* %120, align 4, !tbaa !5
  br label %121

121:                                              ; preds = %116, %43
  %122 = add nuw nsw i64 %30, 2
  %123 = add i64 %32, -2
  %124 = icmp eq i64 %123, 0
  br i1 %124, label %50, label %29, !llvm.loop !21
}

; Function Attrs: argmemonly mustprogress nofree nosync nounwind willreturn
declare void @llvm.lifetime.start.p0i8(i64 immarg, i8* nocapture) #4

declare nonnull align 8 dereferenceable(16) %"class.std::basic_istream"* @_ZNSirsERi(%"class.std::basic_istream"* nonnull align 8 dereferenceable(16), i32* nonnull align 4 dereferenceable(4)) local_unnamed_addr #0

; Function Attrs: argmemonly mustprogress nofree nounwind willreturn writeonly
declare void @llvm.memset.p0i8.i64(i8* nocapture writeonly, i8, i64, i1 immarg) #5

declare nonnull align 8 dereferenceable(8) %"class.std::basic_ostream"* @_ZNSolsEi(%"class.std::basic_ostream"* nonnull align 8 dereferenceable(8), i32) local_unnamed_addr #0

; Function Attrs: argmemonly mustprogress nofree nosync nounwind willreturn
declare void @llvm.lifetime.end.p0i8(i64 immarg, i8* nocapture) #4

declare nonnull align 8 dereferenceable(8) %"class.std::basic_ostream"* @_ZSt16__ostream_insertIcSt11char_traitsIcEERSt13basic_ostreamIT_T0_ES6_PKS3_l(%"class.std::basic_ostream"* nonnull align 8 dereferenceable(8), i8*, i64) local_unnamed_addr #0

declare nonnull align 8 dereferenceable(8) %"class.std::basic_ostream"* @_ZNSo3putEc(%"class.std::basic_ostream"* nonnull align 8 dereferenceable(8), i8 signext) local_unnamed_addr #0

declare nonnull align 8 dereferenceable(8) %"class.std::basic_ostream"* @_ZNSo5flushEv(%"class.std::basic_ostream"* nonnull align 8 dereferenceable(8)) local_unnamed_addr #0

; Function Attrs: noreturn
declare void @_ZSt16__throw_bad_castv() local_unnamed_addr #6

declare void @_ZNKSt5ctypeIcE13_M_widen_initEv(%"class.std::ctype"* nonnull align 8 dereferenceable(570)) local_unnamed_addr #0

; Function Attrs: sspstrong uwtable
define internal void @_GLOBAL__sub_I_1442.cpp() #7 section ".text.startup" {
  tail call void @_ZNSt8ios_base4InitC1Ev(%"class.std::ios_base::Init"* nonnull align 1 dereferenceable(1) @_ZStL8__ioinit)
  %1 = tail call i32 @__cxa_atexit(void (i8*)* bitcast (void (%"class.std::ios_base::Init"*)* @_ZNSt8ios_base4InitD1Ev to void (i8*)*), i8* getelementptr inbounds (%"class.std::ios_base::Init", %"class.std::ios_base::Init"* @_ZStL8__ioinit, i64 0, i32 0), i8* nonnull @__dso_handle) #8
  ret void
}


!llvm.module.flags = !{!0, !1, !2, !3}
!llvm.ident = !{!4}

!0 = !{i32 1, !"wchar_size", i32 4}
!1 = !{i32 7, !"PIC Level", i32 2}
!2 = !{i32 7, !"PIE Level", i32 2}
!3 = !{i32 7, !"uwtable", i32 1}
!4 = !{!"clang version 13.0.0"}
!5 = !{!6, !6, i64 0}
!6 = !{!"int", !7, i64 0}
!7 = !{!"omnipotent char", !8, i64 0}
!8 = !{!"Simple C++ TBAA"}
!9 = distinct !{!9, !10}
!10 = !{!"llvm.loop.mustprogress"}
!11 = distinct !{!11, !10}
!12 = !{!13, !13, i64 0}
!13 = !{!"vtable pointer", !8, i64 0}
!14 = !{!15, !16, i64 240}
!15 = !{!"_ZTSSt9basic_iosIcSt11char_traitsIcEE", !16, i64 216, !7, i64 224, !17, i64 225, !16, i64 232, !16, i64 240, !16, i64 248, !16, i64 256}
!16 = !{!"any pointer", !7, i64 0}
!17 = !{!"bool", !7, i64 0}
!18 = !{!19, !7, i64 56}
!19 = !{!"_ZTSSt5ctypeIcE", !16, i64 16, !17, i64 24, !16, i64 32, !16, i64 40, !16, i64 48, !7, i64 56, !7, i64 57, !7, i64 313, !7, i64 569}
!20 = !{!7, !7, i64 0}
!21 = distinct !{!21, !10}
